target datalayout = "e-m:e-p270:32:32-p271:32:32-p272:64:64-i64:64-i128:128-f80:128-n8:16:32:64-S128"
target triple = "x86_64-unknown-linux-gnu"

%"class.google::protobuf::internal::InternalMetadata" = type { i64 }
%"class.google::protobuf::internal::CachedSize" = type { i32 }
%"struct.google::protobuf::internal::ArenaStringPtr" = type { %"class.google::protobuf::internal::TaggedStringPtr" }
%"class.google::protobuf::internal::TaggedStringPtr" = type { ptr }
%"class.google::protobuf::Message" = type { %"class.google::protobuf::MessageLite" }
%"class.google::protobuf::MessageLite" = type { ptr, %"class.google::protobuf::internal::InternalMetadata" }
%"class.google::protobuf::BytesValue" = type { %"class.google::protobuf::Message", %union.anon.13 }
%union.anon.13 = type { %"struct.google::protobuf::BytesValue::Impl_" }
%"struct.google::protobuf::BytesValue::Impl_" = type <{ %"struct.google::protobuf::internal::ArenaStringPtr", %"class.google::protobuf::internal::CachedSize", [4 x i8] }>

; Function Attrs: noreturn nounwind uwtable
define linkonce_odr hidden void @__clang_call_terminate(ptr noundef %0) #6 comdat {
  %2 = call ptr @__cxa_begin_catch(ptr %0) #3
  call void @_ZSt9terminatev() #13
  unreachable
}

; Function Attrs: mustprogress nounwind uwtable
define linkonce_odr hidden noundef i32 @_ZN4absl12lts_2023080211countl_zeroIjEENSt9enable_ifIXsr3std11is_unsignedIT_EE5valueEiE4typeES3_(i32 noundef %x) #5 comdat personality ptr @__gxx_personality_v0 {
entry:
  %x.addr.i1 = alloca i32, align 4
  %x.addr.i = alloca i32, align 4
  %x.addr = alloca i32, align 4
  store i32 %x, ptr %x.addr, align 4
  %0 = load i32, ptr %x.addr, align 4
  store i32 %0, ptr %x.addr.i, align 4
  %1 = load i32, ptr %x.addr.i, align 4
  store i32 %1, ptr %x.addr.i1, align 4
  %2 = load i32, ptr %x.addr.i1, align 4
  %cmp.i = icmp eq i32 %2, 0
  br i1 %cmp.i, label %cond.true.i, label %cond.false.i

cond.true.i:                                      ; preds = %entry
  br label %_ZN4absl12lts_2023080216numeric_internal20CountLeadingZeroes32Ej.exit

cond.false.i:                                     ; preds = %entry
  %3 = load i32, ptr %x.addr.i1, align 4
  %4 = call i32 @llvm.ctlz.i32(i32 %3, i1 true)
  br label %_ZN4absl12lts_2023080216numeric_internal20CountLeadingZeroes32Ej.exit

_ZN4absl12lts_2023080216numeric_internal20CountLeadingZeroes32Ej.exit: ; preds = %cond.false.i, %cond.true.i
  %cond.i = phi i32 [ 32, %cond.true.i ], [ %4, %cond.false.i ]
  br label %invoke.cont

invoke.cont:                                      ; preds = %_ZN4absl12lts_2023080216numeric_internal20CountLeadingZeroes32Ej.exit
  ret i32 %cond.i

terminate.lpad:                                   ; No predecessors!
  %5 = landingpad { ptr, i32 }
          catch ptr null
  %6 = extractvalue { ptr, i32 } %5, 0
  call void @__clang_call_terminate(ptr %6) #13
  unreachable
}

; Function Attrs: mustprogress nounwind uwtable
define linkonce_odr hidden noundef i64 @_ZN6google8protobuf2io17CodedOutputStream12VarintSize32Ej(i32 noundef %value) #5 comdat align 2 {
entry:
  %value.addr = alloca i32, align 4
  %log2value = alloca i32, align 4
  store i32 %value, ptr %value.addr, align 4
  %0 = load i32, ptr %value.addr, align 4
  %or = or i32 %0, 1
  %call = call noundef i32 @_ZN4absl12lts_2023080211countl_zeroIjEENSt9enable_ifIXsr3std11is_unsignedIT_EE5valueEiE4typeES3_(i32 noundef %or) #3
  %sub = sub nsw i32 31, %call
  store i32 %sub, ptr %log2value, align 4
  %1 = load i32, ptr %log2value, align 4
  %mul = mul i32 %1, 9
  %add = add i32 %mul, 73
  %div = udiv i32 %add, 64
  %conv = zext i32 %div to i64
  ret i64 %conv
}

; Function Attrs: mustprogress nounwind uwtable
define linkonce_odr hidden noundef i64 @_ZNK6google8protobuf8internal15TaggedStringPtr6as_intEv(ptr noundef nonnull align 8 dereferenceable(8) %this) #5 comdat align 2 {
entry:
  %this.addr = alloca ptr, align 8
  store ptr %this, ptr %this.addr, align 8
  %this1 = load ptr, ptr %this.addr, align 8
  %ptr_ = getelementptr inbounds %"class.google::protobuf::internal::TaggedStringPtr", ptr %this1, i32 0, i32 0
  %0 = load ptr, ptr %ptr_, align 8
  %1 = ptrtoint ptr %0 to i64
  ret i64 %1
}

; Function Attrs: mustprogress uwtable
define linkonce_odr hidden noundef i64 @_ZN6google8protobuf8internal14WireFormatLite19LengthDelimitedSizeEm(i64 noundef %length) #4 comdat align 2 {
entry:
  %length.addr = alloca i64, align 8
  store i64 %length, ptr %length.addr, align 8
  %0 = load i64, ptr %length.addr, align 8
  %1 = load i64, ptr %length.addr, align 8
  %conv = trunc i64 %1 to i32
  %call = call noundef i64 @_ZN6google8protobuf2io17CodedOutputStream12VarintSize32Ej(i32 noundef %conv)
  %add = add i64 %0, %call
  ret i64 %add
}

; Function Attrs: mustprogress nounwind uwtable
define linkonce_odr hidden noundef ptr @_ZNK6google8protobuf8internal15TaggedStringPtr3GetB5cxx11Ev(ptr noundef nonnull align 8 dereferenceable(8) %this) #5 comdat align 2 {
entry:
  %this.addr = alloca ptr, align 8
  store ptr %this, ptr %this.addr, align 8
  %this1 = load ptr, ptr %this.addr, align 8
  %call = call noundef i64 @_ZNK6google8protobuf8internal15TaggedStringPtr6as_intEv(ptr noundef nonnull align 8 dereferenceable(8) %this1)
  %and = and i64 %call, -4
  %0 = inttoptr i64 %and to ptr
  ret ptr %0
}

; Function Attrs: mustprogress uwtable
define linkonce_odr hidden noundef i64 @_ZN6google8protobuf8internal14WireFormatLite9BytesSizeERKNSt7__cxx1112basic_stringIcSt11char_traitsIcESaIcEEE(ptr noundef nonnull align 8 dereferenceable(32) %value) #4 comdat align 2 {
entry:
  %value.addr = alloca ptr, align 8
  store ptr %value, ptr %value.addr, align 8
  %0 = load ptr, ptr %value.addr, align 8
  %call = call noundef i64 @_ZNKSt7__cxx1112basic_stringIcSt11char_traitsIcESaIcEE4sizeEv(ptr noundef nonnull align 8 dereferenceable(32) %0) #3
  %call1 = call noundef i64 @_ZN6google8protobuf8internal14WireFormatLite19LengthDelimitedSizeEm(i64 noundef %call)
  ret i64 %call1
}

; Function Attrs: mustprogress uwtable
define linkonce_odr hidden noundef nonnull align 8 dereferenceable(32) ptr @_ZNK6google8protobuf10BytesValue15_internal_valueB5cxx11Ev(ptr noundef nonnull align 8 dereferenceable(32) %this) #4 comdat align 2 {
entry:
  %this.addr.i = alloca ptr, align 8
  %this.addr = alloca ptr, align 8
  store ptr %this, ptr %this.addr, align 8
  %this1 = load ptr, ptr %this.addr, align 8
  %0 = getelementptr inbounds %"class.google::protobuf::BytesValue", ptr %this1, i32 0, i32 1
  %value_ = getelementptr inbounds %"struct.google::protobuf::BytesValue::Impl_", ptr %0, i32 0, i32 0
  store ptr %value_, ptr %this.addr.i, align 8
  %this1.i = load ptr, ptr %this.addr.i, align 8
  %call.i = call noundef nonnull align 8 dereferenceable(32) ptr @_ZNK6google8protobuf8internal15TaggedStringPtr3GetB5cxx11Ev(ptr noundef nonnull align 8 dereferenceable(8) %this1.i)
  ret ptr %call.i
}

; Function Attrs: mustprogress uwtable
define noundef i64 @_ZNK6google8protobuf10BytesValue12ByteSizeLongEv(ptr noundef nonnull align 8 dereferenceable(32) %this) unnamed_addr #4 align 2 {
entry:
  %this.addr = alloca ptr, align 8
  %total_size = alloca i64, align 8
  %cached_has_bits = alloca i32, align 4
  store ptr %this, ptr %this.addr, align 8
  %this1 = load ptr, ptr %this.addr, align 8
  store i64 0, ptr %total_size, align 8
  store i32 0, ptr %cached_has_bits, align 4
  %call = call noundef nonnull align 8 dereferenceable(32) ptr @_ZNK6google8protobuf10BytesValue15_internal_valueB5cxx11Ev(ptr noundef nonnull align 8 dereferenceable(32) %this1)
  %call2 = call noundef zeroext i1 @_ZNKSt7__cxx1112basic_stringIcSt11char_traitsIcESaIcEE5emptyEv(ptr noundef nonnull align 8 dereferenceable(32) %call) #3
  br i1 %call2, label %if.end, label %if.then

if.then:                                          ; preds = %entry
  %call3 = call noundef nonnull align 8 dereferenceable(32) ptr @_ZNK6google8protobuf10BytesValue15_internal_valueB5cxx11Ev(ptr noundef nonnull align 8 dereferenceable(32) %this1)
  %call4 = call noundef i64 @_ZN6google8protobuf8internal14WireFormatLite9BytesSizeERKNSt7__cxx1112basic_stringIcSt11char_traitsIcESaIcEEE(ptr noundef nonnull align 8 dereferenceable(32) %call3)
  %add = add i64 1, %call4
  %0 = load i64, ptr %total_size, align 8
  %add5 = add i64 %0, %add
  store i64 %add5, ptr %total_size, align 8
  br label %if.end

if.end:                                           ; preds = %if.then, %entry
  %1 = load i64, ptr %total_size, align 8
  %2 = getelementptr inbounds %"class.google::protobuf::BytesValue", ptr %this1, i32 0, i32 1
  %_cached_size_ = getelementptr inbounds %"struct.google::protobuf::BytesValue::Impl_", ptr %2, i32 0, i32 1
  %call6 = call noundef i64 @_ZNK6google8protobuf7Message29MaybeComputeUnknownFieldsSizeEmPNS0_8internal10CachedSizeE(ptr noundef nonnull align 8 dereferenceable(16) %this1, i64 noundef %1, ptr noundef %_cached_size_)
  ret i64 %call6
}